target datalayout = "e-m:e-p270:32:32-p271:32:32-p272:64:64-i64:64-i128:128-f80:128-n8:16:32:64-S128"
target triple = "x86_64-pc-linux-gnu"

; Function Attrs: nounwind uwtable
define internal void @dc_129_4x4_c(ptr noundef %0, i64 noundef %1, ptr noundef %2, ptr noundef %3) #1 {
  %5 = alloca ptr, align 8
  %6 = alloca i64, align 8
  %7 = alloca ptr, align 8
  %8 = alloca ptr, align 8
  %9 = alloca ptr, align 8
  %10 = alloca i32, align 4
  store ptr %0, ptr %5, align 8, !tbaa !10
  store i64 %1, ptr %6, align 8, !tbaa !12
  store ptr %2, ptr %7, align 8, !tbaa !10
  store ptr %3, ptr %8, align 8, !tbaa !10
  call void @llvm.lifetime.start.p0(i64 8, ptr %9) #10
  %11 = load ptr, ptr %5, align 8, !tbaa !10
  store ptr %11, ptr %9, align 8, !tbaa !10
  call void @llvm.lifetime.start.p0(i64 4, ptr %10) #10
  store i32 -2122219135, ptr %10, align 4, !tbaa !15
  %12 = load i64, ptr %6, align 8, !tbaa !12
  %13 = udiv i64 %12, 1
  store i64 %13, ptr %6, align 8, !tbaa !12
  %14 = load i32, ptr %10, align 4, !tbaa !15
  %15 = load ptr, ptr %9, align 8, !tbaa !10
  %16 = load i64, ptr %6, align 8, !tbaa !12
  %17 = mul nsw i64 %16, 0
  %18 = getelementptr inbounds i8, ptr %15, i64 %17
  store i32 %14, ptr %18, align 4, !tbaa !14
  %19 = load i32, ptr %10, align 4, !tbaa !15
  %20 = load ptr, ptr %9, align 8, !tbaa !10
  %21 = load i64, ptr %6, align 8, !tbaa !12
  %22 = mul nsw i64 %21, 1
  %23 = getelementptr inbounds i8, ptr %20, i64 %22
  store i32 %19, ptr %23, align 4, !tbaa !14
  %24 = load i32, ptr %10, align 4, !tbaa !15
  %25 = load ptr, ptr %9, align 8, !tbaa !10
  %26 = load i64, ptr %6, align 8, !tbaa !12
  %27 = mul nsw i64 %26, 2
  %28 = getelementptr inbounds i8, ptr %25, i64 %27
  store i32 %24, ptr %28, align 4, !tbaa !14
  %29 = load i32, ptr %10, align 4, !tbaa !15
  %30 = load ptr, ptr %9, align 8, !tbaa !10
  %31 = load i64, ptr %6, align 8, !tbaa !12
  %32 = mul nsw i64 %31, 3
  %33 = getelementptr inbounds i8, ptr %30, i64 %32
  store i32 %29, ptr %33, align 4, !tbaa !14
  call void @llvm.lifetime.end.p0(i64 4, ptr %10) #10
  call void @llvm.lifetime.end.p0(i64 8, ptr %9) #10
  ret void
}